; Function Attrs: mustprogress uwtable
define hidden noundef zeroext i1 @_ZN4cvc58internal6theory5arith6linear9DioSolver12triviallySatEm(ptr noundef nonnull readonly align 8 captures(none) dereferenceable(1032) %0, i64 noundef %1) local_unnamed_addr #3 align 2 personality ptr @__gxx_personality_v0 {
  %3 = alloca %"class.cvc5::internal::theory::arith::linear::Constant", align 8
  %4 = getelementptr inbounds nuw i8, ptr %0, i64 312
  %5 = load ptr, ptr %4, align 8, !tbaa !101
  %6 = getelementptr inbounds nuw %"struct.cvc5::internal::theory::arith::linear::DioSolver::Constraint", ptr %5, i64 %1
  %7 = tail call noundef zeroext i1 @_ZNK4cvc58internal6theory5arith6linear7SumPair10isConstantEv(ptr noundef nonnull align 8 dereferenceable(8) %6)
  br i1 %7, label %8, label %29

8:                                                ; preds = %2
  call void @llvm.lifetime.start.p0(i64 8, ptr nonnull %3) #25
  call void @_ZNK4cvc58internal6theory5arith6linear7SumPair11getConstantEv(ptr dead_on_unwind nonnull writable sret(%"class.cvc5::internal::theory::arith::linear::Constant") align 8 %3, ptr noundef nonnull align 8 dereferenceable(8) %6)
  %9 = load ptr, ptr %3, align 8, !tbaa !107
  %10 = invoke noundef nonnull align 8 dereferenceable(32) ptr @_ZNK4cvc58internal4expr9NodeValue8getConstINS0_8RationalEEERKT_v(ptr noundef nonnull align 8 dereferenceable(24) %9)
          to label %11 unwind label %27

11:                                               ; preds = %8
  %12 = getelementptr inbounds nuw i8, ptr %10, i64 4
  %13 = load i32, ptr %12, align 4, !tbaa !128
  %.not.i = icmp eq i32 %13, 0
  %14 = load ptr, ptr %3, align 8, !tbaa !107
  %15 = load i64, ptr %14, align 8
  %16 = and i64 %15, 1152920405095219200
  %.not.i.i.i = icmp eq i64 %16, 1152920405095219200
  br i1 %.not.i.i.i, label %_ZN4cvc58internal6theory5arith6linear11NodeWrapperD2Ev.exit, label %17, !prof !110

17:                                               ; preds = %11
  %18 = add i64 %15, 1152920405095219200
  %19 = and i64 %18, 1152920405095219200
  %20 = and i64 %15, -1152920405095219201
  %21 = or disjoint i64 %19, %20
  store i64 %21, ptr %14, align 8
  %22 = icmp eq i64 %19, 0
  br i1 %22, label %23, label %_ZN4cvc58internal6theory5arith6linear11NodeWrapperD2Ev.exit, !prof !110

23:                                               ; preds = %17
  invoke void @_ZN4cvc58internal4expr9NodeValue15markForDeletionEv(ptr noundef nonnull align 8 dereferenceable(24) %14)
          to label %_ZN4cvc58internal6theory5arith6linear11NodeWrapperD2Ev.exit unwind label %24

24:                                               ; preds = %23
  %25 = landingpad { ptr, i32 }
          catch ptr null
  %26 = extractvalue { ptr, i32 } %25, 0
  call void @__clang_call_terminate(ptr %26) #26
  unreachable

_ZN4cvc58internal6theory5arith6linear11NodeWrapperD2Ev.exit: ; preds = %11, %17, %23
  call void @llvm.lifetime.end.p0(i64 8, ptr nonnull %3) #25
  br label %29

27:                                               ; preds = %8
  %28 = landingpad { ptr, i32 }
          cleanup
  call void @_ZN4cvc58internal6theory5arith6linear11NodeWrapperD2Ev(ptr noundef nonnull align 8 dereferenceable(8) %3) #25
  call void @llvm.lifetime.end.p0(i64 8, ptr nonnull %3) #25
  resume { ptr, i32 } %28

29:                                               ; preds = %2, %_ZN4cvc58internal6theory5arith6linear11NodeWrapperD2Ev.exit
  %.0 = phi i1 [ %.not.i, %_ZN4cvc58internal6theory5arith6linear11NodeWrapperD2Ev.exit ], [ false, %2 ]
  ret i1 %.0
}